; ModuleID = 'source-C-CXX/28/120.c'
source_filename = "source-C-CXX/28/120.c"
target datalayout = "e-m:e-p270:32:32-p271:32:32-p272:64:64-i64:64-f80:128-n8:16:32:64-S128"
target triple = "x86_64-pc-linux-gnu"

@.str = private unnamed_addr constant [3 x i8] c"%d\00", align 1
@.str.1 = private unnamed_addr constant [7 x i8] c"%.3lf\0A\00", align 1

; Function Attrs: nofree nounwind sspstrong uwtable
define dso_local i32 @main() local_unnamed_addr #0 {
  %1 = alloca i32, align 4
  %2 = alloca [100 x i32], align 16
  %3 = bitcast i32* %1 to i8*
  call void @llvm.lifetime.start.p0i8(i64 4, i8* nonnull %3) #4
  %4 = bitcast [100 x i32]* %2 to i8*
  call void @llvm.lifetime.start.p0i8(i64 400, i8* nonnull %4) #4
  %5 = call i32 (i8*, ...) @__isoc99_scanf(i8* getelementptr inbounds ([3 x i8], [3 x i8]* @.str, i64 0, i64 0), i32* nonnull %1)
  %6 = load i32, i32* %1, align 4, !tbaa !5
  %7 = icmp sgt i32 %6, 0
  br i1 %7, label %8, label %32

8:                                                ; preds = %0, %25
  %9 = phi i64 [ %28, %25 ], [ 0, %0 ]
  %10 = getelementptr inbounds [100 x i32], [100 x i32]* %2, i64 0, i64 %9
  %11 = call i32 (i8*, ...) @__isoc99_scanf(i8* getelementptr inbounds ([3 x i8], [3 x i8]* @.str, i64 0, i64 0), i32* nonnull %10)
  %12 = load i32, i32* %10, align 4, !tbaa !5
  %13 = icmp sgt i32 %12, 0
  br i1 %13, label %14, label %25

14:                                               ; preds = %8, %14
  %15 = phi double [ %23, %14 ], [ 0.000000e+00, %8 ]
  %16 = phi i32 [ %17, %14 ], [ 0, %8 ]
  %17 = add nuw nsw i32 %16, 1
  %18 = call i32 @fbnq(i32 %17)
  %19 = sitofp i32 %18 to double
  %20 = call i32 @fbnq(i32 %16)
  %21 = sitofp i32 %20 to double
  %22 = fdiv double %19, %21
  %23 = fadd double %15, %22
  %24 = icmp eq i32 %17, %12
  br i1 %24, label %25, label %14, !llvm.loop !9

25:                                               ; preds = %14, %8
  %26 = phi double [ 0.000000e+00, %8 ], [ %23, %14 ]
  %27 = call i32 (i8*, ...) @printf(i8* nonnull dereferenceable(1) getelementptr inbounds ([7 x i8], [7 x i8]* @.str.1, i64 0, i64 0), double %26)
  %28 = add nuw nsw i64 %9, 1
  %29 = load i32, i32* %1, align 4, !tbaa !5
  %30 = sext i32 %29 to i64
  %31 = icmp slt i64 %28, %30
  br i1 %31, label %8, label %32, !llvm.loop !11

32:                                               ; preds = %25, %0
  call void @llvm.lifetime.end.p0i8(i64 400, i8* nonnull %4) #4
  call void @llvm.lifetime.end.p0i8(i64 4, i8* nonnull %3) #4
  ret i32 0
}

; Function Attrs: argmemonly mustprogress nofree nosync nounwind willreturn
declare void @llvm.lifetime.start.p0i8(i64 immarg, i8* nocapture) #1

; Function Attrs: nofree nounwind
declare noundef i32 @__isoc99_scanf(i8* nocapture noundef readonly, ...) local_unnamed_addr #2

; Function Attrs: nofree nosync nounwind readnone sspstrong uwtable
define dso_local i32 @fbnq(i32 %0) local_unnamed_addr #3 {
  br label %2

2:                                                ; preds = %5, %1
  %3 = phi i32 [ 0, %1 ], [ %9, %5 ]
  %4 = phi i32 [ %0, %1 ], [ %8, %5 ]
  switch i32 %4, label %5 [
    i32 0, label %10
    i32 1, label %11
  ]

5:                                                ; preds = %2
  %6 = add nsw i32 %4, -1
  %7 = tail call i32 @fbnq(i32 %6)
  %8 = add nsw i32 %4, -2
  %9 = add nsw i32 %7, %3
  br label %2

10:                                               ; preds = %2
  br label %11

11:                                               ; preds = %2, %10
  %12 = phi i32 [ 1, %10 ], [ 2, %2 ]
  %13 = add nsw i32 %12, %3
  ret i32 %13
}

; Function Attrs: nofree nounwind
declare noundef i32 @printf(i8* nocapture noundef readonly, ...) local_unnamed_addr #2

; Function Attrs: argmemonly mustprogress nofree nosync nounwind willreturn
declare void @llvm.lifetime.end.p0i8(i64 immarg, i8* nocapture) #1


!llvm.module.flags = !{!0, !1, !2, !3}
!llvm.ident = !{!4}

!0 = !{i32 1, !"wchar_size", i32 4}
!1 = !{i32 7, !"PIC Level", i32 2}
!2 = !{i32 7, !"PIE Level", i32 2}
!3 = !{i32 7, !"uwtable", i32 1}
!4 = !{!"clang version 13.0.0"}
!5 = !{!6, !6, i64 0}
!6 = !{!"int", !7, i64 0}
!7 = !{!"omnipotent char", !8, i64 0}
!8 = !{!"Simple C/C++ TBAA"}
!9 = distinct !{!9, !10}
!10 = !{!"llvm.loop.mustprogress"}
!11 = distinct !{!11, !10}
